target datalayout = "e-m:e-p270:32:32-p271:32:32-p272:64:64-i64:64-i128:128-f80:128-n8:16:32:64-S128"
target triple = "x86_64-pc-linux-gnu"

%"class.std::__cxx11::basic_string" = type { %"struct.std::__cxx11::basic_string<char>::_Alloc_hider", i64, %union.anon }
%"struct.std::__cxx11::basic_string<char>::_Alloc_hider" = type { ptr }
%union.anon = type { i64, [8 x i8] }
%"class.google::protobuf::internal::LogMessage" = type { i32, ptr, i32, %"class.std::__cxx11::basic_string" }
%"class.google::protobuf::internal::LogFinisher" = type { i8 }

@.str = private unnamed_addr constant [146 x i8] c"generated/home/dtcxzyw/WorkSpace/Projects/compilers/llvm-opt-benchmark/bench/opencv/opencv/3rdparty/protobuf/src/google/protobuf/stubs/strutil.cc\00", align 1
@.str.11 = private unnamed_addr constant [4 x i8] c"inf\00", align 1
@.str.12 = private unnamed_addr constant [5 x i8] c"-inf\00", align 1
@.str.13 = private unnamed_addr constant [4 x i8] c"nan\00", align 1
@.str.14 = private unnamed_addr constant [5 x i8] c"%.*g\00", align 1
@.str.28 = private unnamed_addr constant [76 x i8] c"CHECK failed: snprintf_result > 0 && snprintf_result < kFloatToBufferSize: \00", align 1

; Function Attrs: mustprogress nounwind uwtable
define hidden noundef zeroext i1 @_ZN6google8protobuf11safe_strtofEPKcPf(ptr noundef %0, ptr noundef %1) #6 {
  %3 = alloca ptr, align 8
  %4 = alloca ptr, align 8
  %5 = alloca ptr, align 8
  store ptr %0, ptr %3, align 8, !tbaa !8
  store ptr %1, ptr %4, align 8, !tbaa !85
  call void @llvm.lifetime.start.p0(i64 8, ptr %5) #3
  %6 = call ptr @__errno_location() #23
  store i32 0, ptr %6, align 4, !tbaa !15
  %7 = load ptr, ptr %3, align 8, !tbaa !8
  %8 = call float @strtof(ptr noundef %7, ptr noundef %5) #3
  %9 = load ptr, ptr %4, align 8, !tbaa !85
  store float %8, ptr %9, align 4, !tbaa !77
  %10 = load ptr, ptr %3, align 8, !tbaa !8
  %11 = load i8, ptr %10, align 1, !tbaa !10
  %12 = sext i8 %11 to i32
  %13 = icmp ne i32 %12, 0
  br i1 %13, label %14, label %23

14:                                               ; preds = %2
  %15 = load ptr, ptr %5, align 8, !tbaa !8
  %16 = load i8, ptr %15, align 1, !tbaa !10
  %17 = sext i8 %16 to i32
  %18 = icmp eq i32 %17, 0
  br i1 %18, label %19, label %23

19:                                               ; preds = %14
  %20 = call ptr @__errno_location() #23
  %21 = load i32, ptr %20, align 4, !tbaa !15
  %22 = icmp eq i32 %21, 0
  br label %23

23:                                               ; preds = %19, %14, %2
  %24 = phi i1 [ false, %14 ], [ false, %2 ], [ %22, %19 ]
  call void @llvm.lifetime.end.p0(i64 8, ptr %5) #3
  ret i1 %24
}

; Function Attrs: mustprogress nounwind uwtable
define linkonce_odr noundef zeroext i1 @_ZSt5isnanf(float noundef %0) #6 comdat {
  %2 = alloca float, align 4
  store float %0, ptr %2, align 4, !tbaa !77
  %3 = load float, ptr %2, align 4, !tbaa !77
  %4 = call i1 @llvm.is.fpclass.f32(float %3, i32 3)
  ret i1 %4
}

; Function Attrs: mustprogress nounwind uwtable
define linkonce_odr hidden noundef double @_ZNSt14numeric_limitsIdE8infinityEv() #6 comdat align 2 {
  ret double 0x7FF0000000000000
}

; Function Attrs: mustprogress uwtable
define hidden noundef ptr @_ZN6google8protobuf13FloatToBufferEfPc(float noundef %0, ptr noundef %1) #4 personality ptr @__gxx_personality_v0 {
  %3 = alloca ptr, align 8
  %4 = alloca float, align 4
  %5 = alloca ptr, align 8
  %6 = alloca i32, align 4
  %7 = alloca %"class.google::protobuf::internal::LogMessage", align 8
  %8 = alloca i1, align 1
  %9 = alloca i1, align 1
  %10 = alloca ptr, align 8
  %11 = alloca i32, align 4
  %12 = alloca %"class.google::protobuf::internal::LogFinisher", align 1
  %13 = alloca float, align 4
  %14 = alloca %"class.google::protobuf::internal::LogMessage", align 8
  %15 = alloca i1, align 1
  %16 = alloca i1, align 1
  %17 = alloca %"class.google::protobuf::internal::LogFinisher", align 1
  store float %0, ptr %4, align 4, !tbaa !77
  store ptr %1, ptr %5, align 8, !tbaa !8
  %18 = load float, ptr %4, align 4, !tbaa !77
  %19 = fpext float %18 to double
  %20 = call noundef double @_ZNSt14numeric_limitsIdE8infinityEv() #3
  %21 = fcmp oeq double %19, %20
  br i1 %21, label %22, label %26

22:                                               ; preds = %2
  %23 = load ptr, ptr %5, align 8, !tbaa !8
  %24 = call ptr @strcpy(ptr noundef %23, ptr noundef @.str.11) #3
  %25 = load ptr, ptr %5, align 8, !tbaa !8
  store ptr %25, ptr %3, align 8
  br label %135

26:                                               ; preds = %2
  %27 = load float, ptr %4, align 4, !tbaa !77
  %28 = fpext float %27 to double
  %29 = call noundef double @_ZNSt14numeric_limitsIdE8infinityEv() #3
  %30 = fneg double %29
  %31 = fcmp oeq double %28, %30
  br i1 %31, label %32, label %36

32:                                               ; preds = %26
  %33 = load ptr, ptr %5, align 8, !tbaa !8
  %34 = call ptr @strcpy(ptr noundef %33, ptr noundef @.str.12) #3
  %35 = load ptr, ptr %5, align 8, !tbaa !8
  store ptr %35, ptr %3, align 8
  br label %135

36:                                               ; preds = %26
  %37 = load float, ptr %4, align 4, !tbaa !77
  %38 = call noundef zeroext i1 @_ZSt5isnanf(float noundef %37)
  br i1 %38, label %39, label %43

39:                                               ; preds = %36
  %40 = load ptr, ptr %5, align 8, !tbaa !8
  %41 = call ptr @strcpy(ptr noundef %40, ptr noundef @.str.13) #3
  %42 = load ptr, ptr %5, align 8, !tbaa !8
  store ptr %42, ptr %3, align 8
  br label %135

43:                                               ; preds = %36
  br label %44

44:                                               ; preds = %43
  br label %45

45:                                               ; preds = %44
  call void @llvm.lifetime.start.p0(i64 4, ptr %6) #3
  %46 = load ptr, ptr %5, align 8, !tbaa !8
  %47 = load float, ptr %4, align 4, !tbaa !77
  %48 = fpext float %47 to double
  %49 = call i32 (ptr, i64, ptr, ...) @snprintf(ptr noundef %46, i64 noundef 24, ptr noundef @.str.14, i32 noundef 6, double noundef %48) #3
  store i32 %49, ptr %6, align 4, !tbaa !15
  br label %50

50:                                               ; preds = %68, %45
  br i1 false, label %51, label %84

51:                                               ; preds = %50
  %52 = load i32, ptr %6, align 4, !tbaa !15
  %53 = icmp sgt i32 %52, 0
  store i1 false, ptr %8, align 1
  store i1 false, ptr %9, align 1
  call void @llvm.lifetime.start.p0(i64 1, ptr %12) #3
  br i1 %53, label %54, label %58

54:                                               ; preds = %51
  %55 = load i32, ptr %6, align 4, !tbaa !15
  %56 = icmp slt i32 %55, 24
  br i1 %56, label %57, label %58

57:                                               ; preds = %54
  br label %62

58:                                               ; preds = %54, %51
  call void @llvm.lifetime.start.p0(i64 56, ptr %7) #3
  store i1 true, ptr %8, align 1
  call void @_ZN6google8protobuf8internal10LogMessageC1ENS0_8LogLevelEPKci(ptr noundef nonnull align 8 dereferenceable(56) %7, i32 noundef 3, ptr noundef @.str, i32 noundef 1383)
  store i1 true, ptr %9, align 1
  %59 = invoke noundef nonnull align 8 dereferenceable(56) ptr @_ZN6google8protobuf8internal10LogMessagelsEPKc(ptr noundef nonnull align 8 dereferenceable(56) %7, ptr noundef @.str.28)
          to label %60 unwind label %69

60:                                               ; preds = %58
  invoke void @_ZN6google8protobuf8internal11LogFinisheraSERNS1_10LogMessageE(ptr noundef nonnull align 1 dereferenceable(1) %12, ptr noundef nonnull align 8 dereferenceable(56) %59)
          to label %61 unwind label %73

61:                                               ; preds = %60
  br label %62

62:                                               ; preds = %61, %57
  call void @llvm.lifetime.end.p0(i64 1, ptr %12) #3
  %63 = load i1, ptr %9, align 1
  br i1 %63, label %64, label %65

64:                                               ; preds = %62
  call void @_ZN6google8protobuf8internal10LogMessageD1Ev(ptr noundef nonnull align 8 dereferenceable(56) %7) #3
  br label %65

65:                                               ; preds = %64, %62
  %66 = load i1, ptr %8, align 1
  br i1 %66, label %67, label %68

67:                                               ; preds = %65
  call void @llvm.lifetime.end.p0(i64 56, ptr %7) #3
  br label %68

68:                                               ; preds = %67, %65
  br label %50, !llvm.loop !79

69:                                               ; preds = %58
  %70 = landingpad { ptr, i32 }
          cleanup
  %71 = extractvalue { ptr, i32 } %70, 0
  store ptr %71, ptr %10, align 8
  %72 = extractvalue { ptr, i32 } %70, 1
  store i32 %72, ptr %11, align 4
  br label %77

73:                                               ; preds = %60
  %74 = landingpad { ptr, i32 }
          cleanup
  %75 = extractvalue { ptr, i32 } %74, 0
  store ptr %75, ptr %10, align 8
  %76 = extractvalue { ptr, i32 } %74, 1
  store i32 %76, ptr %11, align 4
  call void @llvm.lifetime.end.p0(i64 1, ptr %12) #3
  br label %77

77:                                               ; preds = %73, %69
  %78 = load i1, ptr %9, align 1
  br i1 %78, label %79, label %80

79:                                               ; preds = %77
  call void @_ZN6google8protobuf8internal10LogMessageD1Ev(ptr noundef nonnull align 8 dereferenceable(56) %7) #3
  br label %80

80:                                               ; preds = %79, %77
  %81 = load i1, ptr %8, align 1
  br i1 %81, label %82, label %83

82:                                               ; preds = %80
  call void @llvm.lifetime.end.p0(i64 56, ptr %7) #3
  br label %83

83:                                               ; preds = %82, %80
  br label %134

84:                                               ; preds = %50
  call void @llvm.lifetime.start.p0(i64 4, ptr %13) #3
  %85 = load ptr, ptr %5, align 8, !tbaa !8
  %86 = call noundef zeroext i1 @_ZN6google8protobuf11safe_strtofEPKcPf(ptr noundef %85, ptr noundef %13)
  br i1 %86, label %87, label %91

87:                                               ; preds = %84
  %88 = load float, ptr %13, align 4, !tbaa !77
  %89 = load float, ptr %4, align 4, !tbaa !77
  %90 = fcmp une float %88, %89
  br i1 %90, label %91, label %131

91:                                               ; preds = %87, %84
  %92 = load ptr, ptr %5, align 8, !tbaa !8
  %93 = load float, ptr %4, align 4, !tbaa !77
  %94 = fpext float %93 to double
  %95 = call i32 (ptr, i64, ptr, ...) @snprintf(ptr noundef %92, i64 noundef 24, ptr noundef @.str.14, i32 noundef 9, double noundef %94) #3
  store i32 %95, ptr %6, align 4, !tbaa !15
  br label %96

96:                                               ; preds = %114, %91
  br i1 false, label %97, label %130

97:                                               ; preds = %96
  %98 = load i32, ptr %6, align 4, !tbaa !15
  %99 = icmp sgt i32 %98, 0
  store i1 false, ptr %15, align 1
  store i1 false, ptr %16, align 1
  call void @llvm.lifetime.start.p0(i64 1, ptr %17) #3
  br i1 %99, label %100, label %104

100:                                              ; preds = %97
  %101 = load i32, ptr %6, align 4, !tbaa !15
  %102 = icmp slt i32 %101, 24
  br i1 %102, label %103, label %104

103:                                              ; preds = %100
  br label %108

104:                                              ; preds = %100, %97
  call void @llvm.lifetime.start.p0(i64 56, ptr %14) #3
  store i1 true, ptr %15, align 1
  call void @_ZN6google8protobuf8internal10LogMessageC1ENS0_8LogLevelEPKci(ptr noundef nonnull align 8 dereferenceable(56) %14, i32 noundef 3, ptr noundef @.str, i32 noundef 1391)
  store i1 true, ptr %16, align 1
  %105 = invoke noundef nonnull align 8 dereferenceable(56) ptr @_ZN6google8protobuf8internal10LogMessagelsEPKc(ptr noundef nonnull align 8 dereferenceable(56) %14, ptr noundef @.str.28)
          to label %106 unwind label %115

106:                                              ; preds = %104
  invoke void @_ZN6google8protobuf8internal11LogFinisheraSERNS1_10LogMessageE(ptr noundef nonnull align 1 dereferenceable(1) %17, ptr noundef nonnull align 8 dereferenceable(56) %105)
          to label %107 unwind label %119

107:                                              ; preds = %106
  br label %108

108:                                              ; preds = %107, %103
  call void @llvm.lifetime.end.p0(i64 1, ptr %17) #3
  %109 = load i1, ptr %16, align 1
  br i1 %109, label %110, label %111

110:                                              ; preds = %108
  call void @_ZN6google8protobuf8internal10LogMessageD1Ev(ptr noundef nonnull align 8 dereferenceable(56) %14) #3
  br label %111

111:                                              ; preds = %110, %108
  %112 = load i1, ptr %15, align 1
  br i1 %112, label %113, label %114

113:                                              ; preds = %111
  call void @llvm.lifetime.end.p0(i64 56, ptr %14) #3
  br label %114

114:                                              ; preds = %113, %111
  br label %96, !llvm.loop !80

115:                                              ; preds = %104
  %116 = landingpad { ptr, i32 }
          cleanup
  %117 = extractvalue { ptr, i32 } %116, 0
  store ptr %117, ptr %10, align 8
  %118 = extractvalue { ptr, i32 } %116, 1
  store i32 %118, ptr %11, align 4
  br label %123

119:                                              ; preds = %106
  %120 = landingpad { ptr, i32 }
          cleanup
  %121 = extractvalue { ptr, i32 } %120, 0
  store ptr %121, ptr %10, align 8
  %122 = extractvalue { ptr, i32 } %120, 1
  store i32 %122, ptr %11, align 4
  call void @llvm.lifetime.end.p0(i64 1, ptr %17) #3
  br label %123

123:                                              ; preds = %119, %115
  %124 = load i1, ptr %16, align 1
  br i1 %124, label %125, label %126

125:                                              ; preds = %123
  call void @_ZN6google8protobuf8internal10LogMessageD1Ev(ptr noundef nonnull align 8 dereferenceable(56) %14) #3
  br label %126

126:                                              ; preds = %125, %123
  %127 = load i1, ptr %15, align 1
  br i1 %127, label %128, label %129

128:                                              ; preds = %126
  call void @llvm.lifetime.end.p0(i64 56, ptr %14) #3
  br label %129

129:                                              ; preds = %128, %126
  call void @llvm.lifetime.end.p0(i64 4, ptr %13) #3
  br label %134

130:                                              ; preds = %96
  br label %131

131:                                              ; preds = %130, %87
  %132 = load ptr, ptr %5, align 8, !tbaa !8
  call void @_ZN6google8protobuf15DelocalizeRadixEPc(ptr noundef %132)
  %133 = load ptr, ptr %5, align 8, !tbaa !8
  store ptr %133, ptr %3, align 8
  call void @llvm.lifetime.end.p0(i64 4, ptr %13) #3
  call void @llvm.lifetime.end.p0(i64 4, ptr %6) #3
  br label %135

134:                                              ; preds = %129, %83
  call void @llvm.lifetime.end.p0(i64 4, ptr %6) #3
  br label %137

135:                                              ; preds = %131, %39, %32, %22
  %136 = load ptr, ptr %3, align 8
  ret ptr %136

137:                                              ; preds = %134
  %138 = load ptr, ptr %10, align 8
  %139 = load i32, ptr %11, align 4
  %140 = insertvalue { ptr, i32 } poison, ptr %138, 0
  %141 = insertvalue { ptr, i32 } %140, i32 %139, 1
  resume { ptr, i32 } %141
}